target datalayout = "e-m:e-p270:32:32-p271:32:32-p272:64:64-i64:64-i128:128-f80:128-n8:16:32:64-S128"
target triple = "x86_64-pc-linux-gnu"

%struct.Abc_Ntk_t_ = type { i32, i32, ptr, ptr, ptr, ptr, ptr, ptr, ptr, ptr, ptr, ptr, ptr, [11 x i32], i32, i32, i32, i32, ptr, i32, ptr, ptr, i32, i32, i32, double, i32, %struct.Vec_Int_t_, ptr, ptr, ptr, ptr, ptr, float, i32, ptr, ptr, ptr, ptr, ptr, ptr, ptr, ptr, ptr, ptr, ptr, ptr, ptr, ptr, ptr, ptr, ptr, ptr, ptr, ptr, ptr }
%struct.Vec_Int_t_ = type { i32, i32, ptr }
%struct.Vec_Ptr_t_ = type { i32, i32, ptr }
%struct.Abc_Obj_t_ = type { ptr, ptr, i32, i32, %struct.Vec_Int_t_, %struct.Vec_Int_t_, %union.anon, %union.anon.0 }
%union.anon = type { ptr }
%union.anon.0 = type { ptr }

@.str.17 = private unnamed_addr constant [37 x i8] c"Choice orig = %3d  Choice new = %3d\0A\00", align 1

; Function Attrs: nounwind uwtable
define internal i32 @Abc_ObjFanoutNum(ptr noundef %0) #0 {
  %2 = alloca ptr, align 8
  store ptr %0, ptr %2, align 8
  %3 = load ptr, ptr %2, align 8
  %4 = getelementptr inbounds %struct.Abc_Obj_t_, ptr %3, i32 0, i32 5
  %5 = getelementptr inbounds %struct.Vec_Int_t_, ptr %4, i32 0, i32 1
  %6 = load i32, ptr %5, align 4
  ret i32 %6
}

; Function Attrs: nounwind uwtable
define internal i32 @Abc_ObjFaninNum(ptr noundef %0) #0 {
  %2 = alloca ptr, align 8
  store ptr %0, ptr %2, align 8
  %3 = load ptr, ptr %2, align 8
  %4 = getelementptr inbounds %struct.Abc_Obj_t_, ptr %3, i32 0, i32 4
  %5 = getelementptr inbounds %struct.Vec_Int_t_, ptr %4, i32 0, i32 1
  %6 = load i32, ptr %5, align 4
  ret i32 %6
}

; Function Attrs: nounwind uwtable
define internal ptr @Vec_PtrEntry(ptr noundef %0, i32 noundef %1) #0 {
  %3 = alloca ptr, align 8
  %4 = alloca i32, align 4
  store ptr %0, ptr %3, align 8
  store i32 %1, ptr %4, align 4
  %5 = load ptr, ptr %3, align 8
  %6 = getelementptr inbounds %struct.Vec_Ptr_t_, ptr %5, i32 0, i32 2
  %7 = load ptr, ptr %6, align 8
  %8 = load i32, ptr %4, align 4
  %9 = sext i32 %8 to i64
  %10 = getelementptr inbounds ptr, ptr %7, i64 %9
  %11 = load ptr, ptr %10, align 8
  ret ptr %11
}

; Function Attrs: nounwind uwtable
define internal void @Vec_PtrFree(ptr noundef %0) #0 {
  %2 = alloca ptr, align 8
  store ptr %0, ptr %2, align 8
  %3 = load ptr, ptr %2, align 8
  %4 = getelementptr inbounds %struct.Vec_Ptr_t_, ptr %3, i32 0, i32 2
  %5 = load ptr, ptr %4, align 8
  %6 = icmp ne ptr %5, null
  br i1 %6, label %7, label %13

7:                                                ; preds = %1
  %8 = load ptr, ptr %2, align 8
  %9 = getelementptr inbounds %struct.Vec_Ptr_t_, ptr %8, i32 0, i32 2
  %10 = load ptr, ptr %9, align 8
  call void @free(ptr noundef %10) #11
  %11 = load ptr, ptr %2, align 8
  %12 = getelementptr inbounds %struct.Vec_Ptr_t_, ptr %11, i32 0, i32 2
  store ptr null, ptr %12, align 8
  br label %14

13:                                               ; preds = %1
  br label %14

14:                                               ; preds = %13, %7
  %15 = load ptr, ptr %2, align 8
  %16 = icmp ne ptr %15, null
  br i1 %16, label %17, label %19

17:                                               ; preds = %14
  %18 = load ptr, ptr %2, align 8
  call void @free(ptr noundef %18) #11
  store ptr null, ptr %2, align 8
  br label %20

19:                                               ; preds = %14
  br label %20

20:                                               ; preds = %19, %17
  ret void
}

; Function Attrs: nounwind uwtable
define internal i32 @Abc_AigNodeIsChoice(ptr noundef %0) #0 {
  %2 = alloca ptr, align 8
  store ptr %0, ptr %2, align 8
  %3 = load ptr, ptr %2, align 8
  %4 = getelementptr inbounds %struct.Abc_Obj_t_, ptr %3, i32 0, i32 6
  %5 = load ptr, ptr %4, align 8
  %6 = icmp ne ptr %5, null
  br i1 %6, label %7, label %11

7:                                                ; preds = %1
  %8 = load ptr, ptr %2, align 8
  %9 = call i32 @Abc_ObjFanoutNum(ptr noundef %8)
  %10 = icmp sgt i32 %9, 0
  br label %11

11:                                               ; preds = %7, %1
  %12 = phi i1 [ false, %1 ], [ %10, %7 ]
  %13 = zext i1 %12 to i32
  ret i32 %13
}

; Function Attrs: nounwind uwtable
define internal i32 @Abc_AigNodeIsAnd(ptr noundef %0) #0 {
  %2 = alloca ptr, align 8
  store ptr %0, ptr %2, align 8
  %3 = load ptr, ptr %2, align 8
  %4 = call i32 @Abc_ObjFaninNum(ptr noundef %3)
  %5 = icmp eq i32 %4, 2
  %6 = zext i1 %5 to i32
  ret i32 %6
}

; Function Attrs: nounwind uwtable
define internal ptr @Abc_NtkObj(ptr noundef %0, i32 noundef %1) #0 {
  %3 = alloca ptr, align 8
  %4 = alloca i32, align 4
  store ptr %0, ptr %3, align 8
  store i32 %1, ptr %4, align 4
  %5 = load ptr, ptr %3, align 8
  %6 = getelementptr inbounds %struct.Abc_Ntk_t_, ptr %5, i32 0, i32 5
  %7 = load ptr, ptr %6, align 8
  %8 = load i32, ptr %4, align 4
  %9 = call ptr @Vec_PtrEntry(ptr noundef %7, i32 noundef %8)
  ret ptr %9
}

; Function Attrs: nounwind uwtable
define internal i32 @Vec_PtrSize(ptr noundef %0) #0 {
  %2 = alloca ptr, align 8
  store ptr %0, ptr %2, align 8
  %3 = load ptr, ptr %2, align 8
  %4 = getelementptr inbounds %struct.Vec_Ptr_t_, ptr %3, i32 0, i32 1
  %5 = load i32, ptr %4, align 4
  ret i32 %5
}

; Function Attrs: nounwind uwtable
define void @Abc_NtkCompareSupports(ptr noundef %0) #0 {
  %2 = alloca ptr, align 8
  %3 = alloca ptr, align 8
  %4 = alloca ptr, align 8
  %5 = alloca ptr, align 8
  %6 = alloca i32, align 4
  %7 = alloca i32, align 4
  store ptr %0, ptr %2, align 8
  store i32 0, ptr %6, align 4
  br label %8

8:                                                ; preds = %66, %1
  %9 = load i32, ptr %6, align 4
  %10 = load ptr, ptr %2, align 8
  %11 = getelementptr inbounds %struct.Abc_Ntk_t_, ptr %10, i32 0, i32 5
  %12 = load ptr, ptr %11, align 8
  %13 = call i32 @Vec_PtrSize(ptr noundef %12)
  %14 = icmp slt i32 %9, %13
  br i1 %14, label %15, label %19

15:                                               ; preds = %8
  %16 = load ptr, ptr %2, align 8
  %17 = load i32, ptr %6, align 4
  %18 = call ptr @Abc_NtkObj(ptr noundef %16, i32 noundef %17)
  store ptr %18, ptr %4, align 8
  br label %19

19:                                               ; preds = %15, %8
  %20 = phi i1 [ false, %8 ], [ true, %15 ]
  br i1 %20, label %21, label %69

21:                                               ; preds = %19
  %22 = load ptr, ptr %4, align 8
  %23 = icmp eq ptr %22, null
  br i1 %23, label %28, label %24

24:                                               ; preds = %21
  %25 = load ptr, ptr %4, align 8
  %26 = call i32 @Abc_AigNodeIsAnd(ptr noundef %25)
  %27 = icmp ne i32 %26, 0
  br i1 %27, label %29, label %28

28:                                               ; preds = %24, %21
  br label %65

29:                                               ; preds = %24
  %30 = load ptr, ptr %4, align 8
  %31 = call i32 @Abc_AigNodeIsChoice(ptr noundef %30)
  %32 = icmp ne i32 %31, 0
  br i1 %32, label %34, label %33

33:                                               ; preds = %29
  br label %66

34:                                               ; preds = %29
  %35 = load ptr, ptr %2, align 8
  %36 = call ptr @Abc_NtkNodeSupport(ptr noundef %35, ptr noundef %4, i32 noundef 1)
  store ptr %36, ptr %3, align 8
  %37 = load ptr, ptr %3, align 8
  %38 = call i32 @Vec_PtrSize(ptr noundef %37)
  store i32 %38, ptr %7, align 4
  %39 = load ptr, ptr %3, align 8
  call void @Vec_PtrFree(ptr noundef %39)
  %40 = load ptr, ptr %4, align 8
  %41 = getelementptr inbounds %struct.Abc_Obj_t_, ptr %40, i32 0, i32 6
  %42 = load ptr, ptr %41, align 8
  store ptr %42, ptr %5, align 8
  br label %43

43:                                               ; preds = %60, %34
  %44 = load ptr, ptr %5, align 8
  %45 = icmp ne ptr %44, null
  br i1 %45, label %46, label %64

46:                                               ; preds = %43
  %47 = load ptr, ptr %2, align 8
  %48 = call ptr @Abc_NtkNodeSupport(ptr noundef %47, ptr noundef %5, i32 noundef 1)
  store ptr %48, ptr %3, align 8
  %49 = load i32, ptr %7, align 4
  %50 = load ptr, ptr %3, align 8
  %51 = call i32 @Vec_PtrSize(ptr noundef %50)
  %52 = icmp ne i32 %49, %51
  br i1 %52, label %53, label %58

53:                                               ; preds = %46
  %54 = load i32, ptr %7, align 4
  %55 = load ptr, ptr %3, align 8
  %56 = call i32 @Vec_PtrSize(ptr noundef %55)
  %57 = call i32 (ptr, ...) @printf(ptr noundef @.str.17, i32 noundef %54, i32 noundef %56)
  br label %58

58:                                               ; preds = %53, %46
  %59 = load ptr, ptr %3, align 8
  call void @Vec_PtrFree(ptr noundef %59)
  br label %60

60:                                               ; preds = %58
  %61 = load ptr, ptr %5, align 8
  %62 = getelementptr inbounds %struct.Abc_Obj_t_, ptr %61, i32 0, i32 6
  %63 = load ptr, ptr %62, align 8
  store ptr %63, ptr %5, align 8
  br label %43, !llvm.loop !98

64:                                               ; preds = %43
  br label %65

65:                                               ; preds = %64, %28
  br label %66

66:                                               ; preds = %65, %33
  %67 = load i32, ptr %6, align 4
  %68 = add nsw i32 %67, 1
  store i32 %68, ptr %6, align 4
  br label %8, !llvm.loop !99

69:                                               ; preds = %19
  ret void
}