; Function Attrs: nounwind uwtable
define void @Abc_NtkCompareSupports(ptr noundef %0) local_unnamed_addr #0 {
  %2 = alloca ptr, align 8
  %3 = alloca ptr, align 8
  %4 = getelementptr inbounds nuw i8, ptr %0, i64 32
  %5 = load ptr, ptr %4, align 8
  %6 = getelementptr i8, ptr %5, i64 4
  %.val2031 = load i32, ptr %6, align 4
  %7 = icmp sgt i32 %.val2031, 0
  br i1 %7, label %.lr.ph33, label %.critedge

.lr.ph33:                                         ; preds = %1, %Abc_AigNodeIsChoice.exit.thread
  %indvars.iv = phi i64 [ %indvars.iv.next, %Abc_AigNodeIsChoice.exit.thread ], [ 0, %1 ]
  %8 = phi ptr [ %34, %Abc_AigNodeIsChoice.exit.thread ], [ %5, %1 ]
  %9 = getelementptr i8, ptr %8, i64 8
  %.val21.val = load ptr, ptr %9, align 8
  %10 = getelementptr inbounds nuw ptr, ptr %.val21.val, i64 %indvars.iv
  %11 = load ptr, ptr %10, align 8
  store ptr %11, ptr %2, align 8
  %12 = icmp eq ptr %11, null
  br i1 %12, label %Abc_AigNodeIsChoice.exit.thread, label %13

13:                                               ; preds = %.lr.ph33
  %14 = getelementptr i8, ptr %11, i64 28
  %.val22 = load i32, ptr %14, align 4
  %.not = icmp eq i32 %.val22, 2
  br i1 %.not, label %15, label %Abc_AigNodeIsChoice.exit.thread

15:                                               ; preds = %13
  %16 = getelementptr inbounds nuw i8, ptr %11, i64 56
  %17 = load ptr, ptr %16, align 8
  %.not.i = icmp eq ptr %17, null
  br i1 %.not.i, label %Abc_AigNodeIsChoice.exit.thread, label %Abc_AigNodeIsChoice.exit

Abc_AigNodeIsChoice.exit:                         ; preds = %15
  %18 = getelementptr i8, ptr %11, i64 44
  %.val.i = load i32, ptr %18, align 4
  %19 = icmp slt i32 %.val.i, 1
  br i1 %19, label %Abc_AigNodeIsChoice.exit.thread, label %20

20:                                               ; preds = %Abc_AigNodeIsChoice.exit
  %21 = call ptr @Abc_NtkNodeSupport(ptr noundef nonnull %0, ptr noundef nonnull %2, i32 noundef 1) #28
  %22 = getelementptr i8, ptr %21, i64 4
  %.val19 = load i32, ptr %22, align 4
  %23 = getelementptr inbounds nuw i8, ptr %21, i64 8
  %24 = load ptr, ptr %23, align 8
  %.not.i23 = icmp eq ptr %24, null
  br i1 %.not.i23, label %Vec_PtrFree.exit, label %25

25:                                               ; preds = %20
  call void @free(ptr noundef nonnull %24) #28
  br label %Vec_PtrFree.exit

Vec_PtrFree.exit:                                 ; preds = %20, %25
  call void @free(ptr noundef nonnull %21) #28
  %.pn27 = load ptr, ptr %2, align 8
  %storemerge.in28 = getelementptr inbounds nuw i8, ptr %.pn27, i64 56
  %storemerge29 = load ptr, ptr %storemerge.in28, align 8
  store ptr %storemerge29, ptr %3, align 8
  %.not1630 = icmp eq ptr %storemerge29, null
  br i1 %.not1630, label %Abc_AigNodeIsChoice.exit.thread, label %.lr.ph

.lr.ph:                                           ; preds = %Vec_PtrFree.exit, %Vec_PtrFree.exit25
  %26 = call ptr @Abc_NtkNodeSupport(ptr noundef nonnull %0, ptr noundef nonnull %3, i32 noundef 1) #28
  %27 = getelementptr i8, ptr %26, i64 4
  %.val18 = load i32, ptr %27, align 4
  %.not17 = icmp eq i32 %.val19, %.val18
  br i1 %.not17, label %30, label %28

28:                                               ; preds = %.lr.ph
  %29 = call i32 (ptr, ...) @printf(ptr noundef nonnull dereferenceable(1) @.str.17, i32 noundef %.val19, i32 noundef %.val18)
  br label %30

30:                                               ; preds = %28, %.lr.ph
  %31 = getelementptr inbounds nuw i8, ptr %26, i64 8
  %32 = load ptr, ptr %31, align 8
  %.not.i24 = icmp eq ptr %32, null
  br i1 %.not.i24, label %Vec_PtrFree.exit25, label %33

33:                                               ; preds = %30
  call void @free(ptr noundef nonnull %32) #28
  br label %Vec_PtrFree.exit25

Vec_PtrFree.exit25:                               ; preds = %30, %33
  call void @free(ptr noundef nonnull %26) #28
  %.pn = load ptr, ptr %3, align 8
  %storemerge.in = getelementptr inbounds nuw i8, ptr %.pn, i64 56
  %storemerge = load ptr, ptr %storemerge.in, align 8
  store ptr %storemerge, ptr %3, align 8
  %.not16 = icmp eq ptr %storemerge, null
  br i1 %.not16, label %Abc_AigNodeIsChoice.exit.thread, label %.lr.ph, !llvm.loop !95

Abc_AigNodeIsChoice.exit.thread:                  ; preds = %Vec_PtrFree.exit25, %Vec_PtrFree.exit, %15, %13, %.lr.ph33, %Abc_AigNodeIsChoice.exit
  %indvars.iv.next = add nuw nsw i64 %indvars.iv, 1
  %34 = load ptr, ptr %4, align 8
  %35 = getelementptr i8, ptr %34, i64 4
  %.val20 = load i32, ptr %35, align 4
  %36 = sext i32 %.val20 to i64
  %37 = icmp slt i64 %indvars.iv.next, %36
  br i1 %37, label %.lr.ph33, label %.critedge, !llvm.loop !96

.critedge:                                        ; preds = %Abc_AigNodeIsChoice.exit.thread, %1
  ret void
}